target datalayout = "e-m:e-p270:32:32-p271:32:32-p272:64:64-i64:64-f80:128-n8:16:32:64-S128"
target triple = "x86_64-pc-linux-gnu"

@.str = private unnamed_addr constant [3 x i8] c"%d\00", align 1
@.str.1 = private unnamed_addr constant [6 x i8] c"%d %d\00", align 1
@.str.2 = private unnamed_addr constant [4 x i8] c"%d\0A\00", align 1

; Function Attrs: noinline nounwind uwtable
define dso_local i32 @main() #0 {
  %1 = alloca i32, align 4
  %2 = alloca i32, align 4
  %3 = alloca i32, align 4
  %4 = alloca i32, align 4
  %5 = alloca i32, align 4
  %6 = alloca i32, align 4
  %7 = alloca i32, align 4
  %8 = alloca [100 x [100 x i32]], align 16
  %9 = alloca i32, align 4
  %10 = alloca i32, align 4
  store i32 0, i32* %1, align 4
  %11 = call i32 (i8*, ...) @__isoc99_scanf(i8* getelementptr inbounds ([3 x i8], [3 x i8]* @.str, i64 0, i64 0), i32* %2)
  store i32 0, i32* %5, align 4
  br label %12

12:                                               ; preds = %140, %0
  %13 = load i32, i32* %5, align 4
  %14 = load i32, i32* %2, align 4
  %15 = icmp slt i32 %13, %14
  br i1 %15, label %16, label %143

16:                                               ; preds = %12
  store i32 0, i32* %6, align 4
  %17 = call i32 (i8*, ...) @__isoc99_scanf(i8* getelementptr inbounds ([6 x i8], [6 x i8]* @.str.1, i64 0, i64 0), i32* %3, i32* %4)
  store i32 0, i32* %9, align 4
  br label %18

18:                                               ; preds = %39, %16
  %19 = load i32, i32* %9, align 4
  %20 = load i32, i32* %3, align 4
  %21 = icmp slt i32 %19, %20
  br i1 %21, label %22, label %42

22:                                               ; preds = %18
  store i32 0, i32* %10, align 4
  br label %23

23:                                               ; preds = %35, %22
  %24 = load i32, i32* %10, align 4
  %25 = load i32, i32* %4, align 4
  %26 = icmp slt i32 %24, %25
  br i1 %26, label %27, label %38

27:                                               ; preds = %23
  %28 = load i32, i32* %9, align 4
  %29 = sext i32 %28 to i64
  %30 = getelementptr inbounds [100 x [100 x i32]], [100 x [100 x i32]]* %8, i64 0, i64 %29
  %31 = load i32, i32* %10, align 4
  %32 = sext i32 %31 to i64
  %33 = getelementptr inbounds [100 x i32], [100 x i32]* %30, i64 0, i64 %32
  %34 = call i32 (i8*, ...) @__isoc99_scanf(i8* getelementptr inbounds ([3 x i8], [3 x i8]* @.str, i64 0, i64 0), i32* %33)
  br label %35

35:                                               ; preds = %27
  %36 = load i32, i32* %10, align 4
  %37 = add nsw i32 %36, 1
  store i32 %37, i32* %10, align 4
  br label %23

38:                                               ; preds = %23
  br label %39

39:                                               ; preds = %38
  %40 = load i32, i32* %9, align 4
  %41 = add nsw i32 %40, 1
  store i32 %41, i32* %9, align 4
  br label %18

42:                                               ; preds = %18
  %43 = load i32, i32* %4, align 4
  %44 = icmp eq i32 %43, 1
  br i1 %44, label %45, label %62

45:                                               ; preds = %42
  store i32 0, i32* %7, align 4
  br label %46

46:                                               ; preds = %58, %45
  %47 = load i32, i32* %7, align 4
  %48 = load i32, i32* %3, align 4
  %49 = icmp slt i32 %47, %48
  br i1 %49, label %50, label %61

50:                                               ; preds = %46
  %51 = load i32, i32* %6, align 4
  %52 = load i32, i32* %7, align 4
  %53 = sext i32 %52 to i64
  %54 = getelementptr inbounds [100 x [100 x i32]], [100 x [100 x i32]]* %8, i64 0, i64 %53
  %55 = getelementptr inbounds [100 x i32], [100 x i32]* %54, i64 0, i64 0
  %56 = load i32, i32* %55, align 16
  %57 = add nsw i32 %51, %56
  store i32 %57, i32* %6, align 4
  br label %58

58:                                               ; preds = %50
  %59 = load i32, i32* %7, align 4
  %60 = add nsw i32 %59, 1
  store i32 %60, i32* %7, align 4
  br label %46

61:                                               ; preds = %46
  br label %137

62:                                               ; preds = %42
  %63 = load i32, i32* %3, align 4
  %64 = icmp eq i32 %63, 1
  br i1 %64, label %65, label %82

65:                                               ; preds = %62
  store i32 0, i32* %7, align 4
  br label %66

66:                                               ; preds = %78, %65
  %67 = load i32, i32* %7, align 4
  %68 = load i32, i32* %4, align 4
  %69 = icmp slt i32 %67, %68
  br i1 %69, label %70, label %81

70:                                               ; preds = %66
  %71 = load i32, i32* %6, align 4
  %72 = getelementptr inbounds [100 x [100 x i32]], [100 x [100 x i32]]* %8, i64 0, i64 0
  %73 = load i32, i32* %7, align 4
  %74 = sext i32 %73 to i64
  %75 = getelementptr inbounds [100 x i32], [100 x i32]* %72, i64 0, i64 %74
  %76 = load i32, i32* %75, align 4
  %77 = add nsw i32 %71, %76
  store i32 %77, i32* %6, align 4
  br label %78

78:                                               ; preds = %70
  %79 = load i32, i32* %7, align 4
  %80 = add nsw i32 %79, 1
  store i32 %80, i32* %7, align 4
  br label %66

81:                                               ; preds = %66
  br label %136

82:                                               ; preds = %62
  store i32 0, i32* %9, align 4
  br label %83

83:                                               ; preds = %132, %82
  %84 = load i32, i32* %9, align 4
  %85 = load i32, i32* %3, align 4
  %86 = icmp slt i32 %84, %85
  br i1 %86, label %87, label %135

87:                                               ; preds = %83
  %88 = load i32, i32* %9, align 4
  %89 = icmp sgt i32 %88, 0
  br i1 %89, label %90, label %112

90:                                               ; preds = %87
  %91 = load i32, i32* %9, align 4
  %92 = load i32, i32* %3, align 4
  %93 = sub nsw i32 %92, 1
  %94 = icmp slt i32 %91, %93
  br i1 %94, label %95, label %112

95:                                               ; preds = %90
  %96 = load i32, i32* %6, align 4
  %97 = load i32, i32* %9, align 4
  %98 = sext i32 %97 to i64
  %99 = getelementptr inbounds [100 x [100 x i32]], [100 x [100 x i32]]* %8, i64 0, i64 %98
  %100 = getelementptr inbounds [100 x i32], [100 x i32]* %99, i64 0, i64 0
  %101 = load i32, i32* %100, align 16
  %102 = add nsw i32 %96, %101
  %103 = load i32, i32* %9, align 4
  %104 = sext i32 %103 to i64
  %105 = getelementptr inbounds [100 x [100 x i32]], [100 x [100 x i32]]* %8, i64 0, i64 %104
  %106 = load i32, i32* %4, align 4
  %107 = sub nsw i32 %106, 1
  %108 = sext i32 %107 to i64
  %109 = getelementptr inbounds [100 x i32], [100 x i32]* %105, i64 0, i64 %108
  %110 = load i32, i32* %109, align 4
  %111 = add nsw i32 %102, %110
  store i32 %111, i32* %6, align 4
  br label %131

112:                                              ; preds = %90, %87
  store i32 0, i32* %7, align 4
  br label %113

113:                                              ; preds = %127, %112
  %114 = load i32, i32* %7, align 4
  %115 = load i32, i32* %4, align 4
  %116 = icmp slt i32 %114, %115
  br i1 %116, label %117, label %130

117:                                              ; preds = %113
  %118 = load i32, i32* %6, align 4
  %119 = load i32, i32* %9, align 4
  %120 = sext i32 %119 to i64
  %121 = getelementptr inbounds [100 x [100 x i32]], [100 x [100 x i32]]* %8, i64 0, i64 %120
  %122 = load i32, i32* %7, align 4
  %123 = sext i32 %122 to i64
  %124 = getelementptr inbounds [100 x i32], [100 x i32]* %121, i64 0, i64 %123
  %125 = load i32, i32* %124, align 4
  %126 = add nsw i32 %118, %125
  store i32 %126, i32* %6, align 4
  br label %127

127:                                              ; preds = %117
  %128 = load i32, i32* %7, align 4
  %129 = add nsw i32 %128, 1
  store i32 %129, i32* %7, align 4
  br label %113

130:                                              ; preds = %113
  br label %131

131:                                              ; preds = %130, %95
  br label %132

132:                                              ; preds = %131
  %133 = load i32, i32* %9, align 4
  %134 = add nsw i32 %133, 1
  store i32 %134, i32* %9, align 4
  br label %83

135:                                              ; preds = %83
  br label %136

136:                                              ; preds = %135, %81
  br label %137

137:                                              ; preds = %136, %61
  %138 = load i32, i32* %6, align 4
  %139 = call i32 (i8*, ...) @printf(i8* getelementptr inbounds ([4 x i8], [4 x i8]* @.str.2, i64 0, i64 0), i32 %138)
  br label %140

140:                                              ; preds = %137
  %141 = load i32, i32* %5, align 4
  %142 = add nsw i32 %141, 1
  store i32 %142, i32* %5, align 4
  br label %12

143:                                              ; preds = %12
  ret i32 0
}